; Function Attrs: mustprogress uwtable
define noundef ptr @_ZN3re29Prefilter4Info6Walker10ShortVisitEPNS_6RegexpEPS1_(ptr nocapture nonnull readnone align 8 %this, ptr nocapture readnone %re, ptr nocapture readnone %parent_arg) unnamed_addr #0 align 2 personality ptr @__gxx_personality_v0 {
entry:
  %call.i = tail call noalias noundef nonnull dereferenceable(64) ptr @_Znwm(i64 noundef 64) #17
  invoke void @_ZN3re29Prefilter4InfoC1Ev(ptr noundef nonnull align 8 dereferenceable(64) %call.i)
          to label %invoke.cont.i unwind label %lpad.i

invoke.cont.i:                                    ; preds = %entry
  %call1.i = tail call noalias noundef nonnull dereferenceable(56) ptr @_Znwm(i64 noundef 56) #17
  invoke void @_ZN3re29PrefilterC1ENS0_2OpE(ptr noundef nonnull align 8 dereferenceable(52) %call1.i, i32 noundef 0)
          to label %_ZN3re29Prefilter4Info8AnyMatchEv.exit unwind label %lpad2.i

lpad.i:                                           ; preds = %entry
  %0 = landingpad { ptr, i32 }
          cleanup
  br label %eh.resume.i

lpad2.i:                                          ; preds = %invoke.cont.i
  %1 = landingpad { ptr, i32 }
          cleanup
  br label %eh.resume.i

eh.resume.i:                                      ; preds = %lpad2.i, %lpad.i
  %call1.sink.i = phi ptr [ %call1.i, %lpad2.i ], [ %call.i, %lpad.i ]
  %.pn.i = phi { ptr, i32 } [ %1, %lpad2.i ], [ %0, %lpad.i ]
  tail call void @_ZdlPv(ptr noundef nonnull %call1.sink.i) #18
  resume { ptr, i32 } %.pn.i

_ZN3re29Prefilter4Info8AnyMatchEv.exit:           ; preds = %invoke.cont.i
  %match_.i = getelementptr inbounds i8, ptr %call.i, i64 56
  store ptr %call1.i, ptr %match_.i, align 8
  ret ptr %call.i
}